; Function Attrs: mustprogress nofree norecurse nosync nounwind willreturn memory(argmem: readwrite) uwtable
define void @_ZNK6casadi10Rootfinder8set_workEPvRPPKdRPPdRPxRS6_(ptr noundef nonnull readonly align 8 captures(none) dereferenceable(1600) %0, ptr noundef writeonly captures(none) initializes((152, 169), (172, 176)) %1, ptr noundef nonnull align 8 captures(none) dereferenceable(8) %2, ptr noundef nonnull align 8 captures(none) dereferenceable(8) %3, ptr nonnull readnone align 8 captures(none) %4, ptr nonnull readnone align 8 captures(none) %5) unnamed_addr #14 align 2 {
  %7 = getelementptr inbounds nuw i8, ptr %1, i64 168
  store i8 0, ptr %7, align 8, !tbaa !251
  %8 = getelementptr inbounds nuw i8, ptr %1, i64 172
  store i32 1, ptr %8, align 4, !tbaa !269
  %9 = load ptr, ptr %2, align 8, !tbaa !275
  %10 = getelementptr inbounds nuw i8, ptr %1, i64 152
  store ptr %9, ptr %10, align 8, !tbaa !276
  %11 = getelementptr inbounds nuw i8, ptr %0, i64 176
  %12 = load i64, ptr %11, align 8, !tbaa !277
  %13 = getelementptr inbounds nuw ptr, ptr %9, i64 %12
  store ptr %13, ptr %2, align 8, !tbaa !275
  %14 = load ptr, ptr %3, align 8, !tbaa !275
  %15 = getelementptr inbounds nuw i8, ptr %1, i64 160
  store ptr %14, ptr %15, align 8, !tbaa !278
  %16 = getelementptr inbounds nuw i8, ptr %0, i64 184
  %17 = load i64, ptr %16, align 8, !tbaa !279
  %18 = getelementptr inbounds nuw ptr, ptr %14, i64 %17
  store ptr %18, ptr %3, align 8, !tbaa !275
  ret void
}